; ModuleID = '34/507.c'
source_filename = "34/507.c"
target datalayout = "e-m:e-p270:32:32-p271:32:32-p272:64:64-i64:64-f80:128-n8:16:32:64-S128"
target triple = "x86_64-pc-linux-gnu"

@.str = private unnamed_addr constant [3 x i8] c"%d\00", align 1
@.str.1 = private unnamed_addr constant [4 x i8] c"End\00", align 1
@.str.2 = private unnamed_addr constant [9 x i8] c"%d/2=%d\0A\00", align 1
@.str.3 = private unnamed_addr constant [11 x i8] c"%d*3+1=%d\0A\00", align 1

; Function Attrs: noinline nounwind uwtable
define dso_local i32 @main() #0 {
  %1 = alloca i32, align 4
  %2 = alloca i32, align 4
  %3 = alloca i32, align 4
  %4 = alloca i32, align 4
  %5 = alloca [10000 x i32], align 16
  %6 = alloca i32, align 4
  %7 = alloca i32, align 4
  %8 = alloca i32, align 4
  store i32 0, i32* %1, align 4
  store i32 0, i32* %6, align 4
  store i32 0, i32* %8, align 4
  %9 = call i32 (i8*, ...) @__isoc99_scanf(i8* getelementptr inbounds ([3 x i8], [3 x i8]* @.str, i64 0, i64 0), i32* %2)
  %10 = load i32, i32* %2, align 4
  %11 = icmp eq i32 %10, 1
  br i1 %11, label %12, label %14

12:                                               ; preds = %0
  %13 = call i32 (i8*, ...) @printf(i8* getelementptr inbounds ([4 x i8], [4 x i8]* @.str.1, i64 0, i64 0))
  br label %46

14:                                               ; preds = %0
  store i32 0, i32* %3, align 4
  br label %15

15:                                               ; preds = %42, %14
  %16 = load i32, i32* %2, align 4
  %17 = icmp eq i32 %16, 1
  br i1 %17, label %18, label %20

18:                                               ; preds = %15
  %19 = call i32 (i8*, ...) @printf(i8* getelementptr inbounds ([4 x i8], [4 x i8]* @.str.1, i64 0, i64 0))
  br label %45

20:                                               ; preds = %15
  %21 = load i32, i32* %2, align 4
  %22 = srem i32 %21, 2
  %23 = icmp eq i32 %22, 0
  br i1 %23, label %24, label %31

24:                                               ; preds = %20
  %25 = load i32, i32* %2, align 4
  %26 = load i32, i32* %2, align 4
  %27 = sdiv i32 %26, 2
  %28 = call i32 (i8*, ...) @printf(i8* getelementptr inbounds ([9 x i8], [9 x i8]* @.str.2, i64 0, i64 0), i32 %25, i32 %27)
  %29 = load i32, i32* %2, align 4
  %30 = sdiv i32 %29, 2
  store i32 %30, i32* %2, align 4
  br label %40

31:                                               ; preds = %20
  %32 = load i32, i32* %2, align 4
  %33 = load i32, i32* %2, align 4
  %34 = mul nsw i32 %33, 3
  %35 = add nsw i32 %34, 1
  %36 = call i32 (i8*, ...) @printf(i8* getelementptr inbounds ([11 x i8], [11 x i8]* @.str.3, i64 0, i64 0), i32 %32, i32 %35)
  %37 = load i32, i32* %2, align 4
  %38 = mul nsw i32 %37, 3
  %39 = add nsw i32 %38, 1
  store i32 %39, i32* %2, align 4
  br label %40

40:                                               ; preds = %31, %24
  br label %41

41:                                               ; preds = %40
  br label %42

42:                                               ; preds = %41
  %43 = load i32, i32* %3, align 4
  %44 = add nsw i32 %43, 1
  store i32 %44, i32* %3, align 4
  br label %15

45:                                               ; preds = %18
  br label %46

46:                                               ; preds = %45, %12
  ret i32 0
}

declare dso_local i32 @__isoc99_scanf(i8*, ...) #1

declare dso_local i32 @printf(i8*, ...) #1


!llvm.module.flags = !{!0}
!llvm.ident = !{!1}

!0 = !{i32 1, !"wchar_size", i32 4}
!1 = !{!"clang version 10.0.0-4ubuntu1 "}
